; Function Attrs: mustprogress nofree norecurse nosync nounwind willreturn memory(argmem: readwrite) uwtable
define dso_local void @archive_entry_unset_birthtime(ptr noundef captures(none) initializes((16, 20), (72, 84)) %0) local_unnamed_addr #7 {
  %2 = getelementptr inbounds nuw i8, ptr %0, i64 16
  store i32 0, ptr %2, align 8, !tbaa !78
  %3 = getelementptr inbounds nuw i8, ptr %0, i64 192
  %4 = load i32, ptr %3, align 8, !tbaa !31
  %5 = getelementptr inbounds nuw i8, ptr %0, i64 72
  store i64 0, ptr %5, align 8, !tbaa !48
  %6 = getelementptr inbounds nuw i8, ptr %0, i64 80
  store i32 0, ptr %6, align 8, !tbaa !49
  %7 = and i32 %4, -33
  store i32 %7, ptr %3, align 8, !tbaa !31
  ret void
}